ccopy_reg
_reconstructor
p0
(cgrasping.myTypes
shelfInfo
p1
c__builtin__
tuple
p2
((F0.9383940755996522
F0.3982706902679011
F0.0
tp3
(F0.0
F0.0
F0.011242639277129186
F0.9999367995338927
tp4
(F0.9556048883383238
F-0.367009999239137
F0.0
tp5
(F0.0
F0.0
F0.011242639277129186
F0.9999367995338927
tp6
g0
(crospy.rostime
Time
p7
c__builtin__
object
p8
Ntp9
Rp10
(lp11
I1466014638
aI500704050
abtp12
tp13
Rp14
.